; Function Attrs: cold nounwind optsize uwtable
define internal noundef i32 @atrac1_decode_end(ptr noundef readonly captures(none) %0) #0 {
  %2 = getelementptr inbounds nuw i8, ptr %0, i64 32
  %3 = load ptr, ptr %2, align 8, !tbaa !4
  %4 = getelementptr inbounds nuw i8, ptr %3, i64 17560
  tail call void @av_tx_uninit(ptr noundef nonnull %4) #7
  %5 = getelementptr inbounds nuw i8, ptr %3, i64 17568
  tail call void @av_tx_uninit(ptr noundef nonnull %5) #7
  %6 = getelementptr inbounds nuw i8, ptr %3, i64 17576
  tail call void @av_tx_uninit(ptr noundef nonnull %6) #7
  ret i32 0
}